target datalayout = "e-m:e-p270:32:32-p271:32:32-p272:64:64-i64:64-i128:128-f80:128-n8:16:32:64-S128"
target triple = "x86_64-pc-linux-gnu"

%struct.tsi_ssl_frame_protector = type { %struct.tsi_frame_protector, ptr, ptr, ptr, i64, i64 }
%struct.tsi_frame_protector = type { ptr }

; Function Attrs: mustprogress uwtable
define internal void @_ZL21ssl_protector_destroyP19tsi_frame_protector(ptr noundef %0) #4 {
  %2 = alloca ptr, align 8
  %3 = alloca ptr, align 8
  store ptr %0, ptr %2, align 8, !tbaa !353
  call void @llvm.lifetime.start.p0(i64 8, ptr %3) #3
  %4 = load ptr, ptr %2, align 8, !tbaa !353
  store ptr %4, ptr %3, align 8, !tbaa !343
  %5 = load ptr, ptr %3, align 8, !tbaa !343
  %6 = getelementptr inbounds nuw %struct.tsi_ssl_frame_protector, ptr %5, i32 0, i32 3
  %7 = load ptr, ptr %6, align 8, !tbaa !349
  %8 = icmp ne ptr %7, null
  br i1 %8, label %9, label %13

9:                                                ; preds = %1
  %10 = load ptr, ptr %3, align 8, !tbaa !343
  %11 = getelementptr inbounds nuw %struct.tsi_ssl_frame_protector, ptr %10, i32 0, i32 3
  %12 = load ptr, ptr %11, align 8, !tbaa !349
  call void @gpr_free(ptr noundef %12)
  br label %13

13:                                               ; preds = %9, %1
  %14 = load ptr, ptr %3, align 8, !tbaa !343
  %15 = getelementptr inbounds nuw %struct.tsi_ssl_frame_protector, ptr %14, i32 0, i32 1
  %16 = load ptr, ptr %15, align 8, !tbaa !350
  %17 = icmp ne ptr %16, null
  br i1 %17, label %18, label %22

18:                                               ; preds = %13
  %19 = load ptr, ptr %3, align 8, !tbaa !343
  %20 = getelementptr inbounds nuw %struct.tsi_ssl_frame_protector, ptr %19, i32 0, i32 1
  %21 = load ptr, ptr %20, align 8, !tbaa !350
  call void @SSL_free(ptr noundef %21)
  br label %22

22:                                               ; preds = %18, %13
  %23 = load ptr, ptr %3, align 8, !tbaa !343
  %24 = getelementptr inbounds nuw %struct.tsi_ssl_frame_protector, ptr %23, i32 0, i32 2
  %25 = load ptr, ptr %24, align 8, !tbaa !351
  %26 = icmp ne ptr %25, null
  br i1 %26, label %27, label %32

27:                                               ; preds = %22
  %28 = load ptr, ptr %3, align 8, !tbaa !343
  %29 = getelementptr inbounds nuw %struct.tsi_ssl_frame_protector, ptr %28, i32 0, i32 2
  %30 = load ptr, ptr %29, align 8, !tbaa !351
  %31 = call i32 @BIO_free(ptr noundef %30)
  br label %32

32:                                               ; preds = %27, %22
  %33 = load ptr, ptr %2, align 8, !tbaa !353
  call void @gpr_free(ptr noundef %33)
  call void @llvm.lifetime.end.p0(i64 8, ptr %3) #3
  ret void
}