; Function Attrs: mustprogress uwtable
define internal void @_ZL21ssl_protector_destroyP19tsi_frame_protector(ptr noundef %0) #3 {
  %2 = getelementptr inbounds nuw i8, ptr %0, i64 24
  %3 = load ptr, ptr %2, align 8, !tbaa !229
  %.not = icmp eq ptr %3, null
  br i1 %.not, label %5, label %4

4:                                                ; preds = %1
  tail call void @gpr_free(ptr noundef nonnull %3)
  br label %5

5:                                                ; preds = %4, %1
  %6 = getelementptr inbounds nuw i8, ptr %0, i64 8
  %7 = load ptr, ptr %6, align 8, !tbaa !230
  %.not10 = icmp eq ptr %7, null
  br i1 %.not10, label %9, label %8

8:                                                ; preds = %5
  tail call void @SSL_free(ptr noundef nonnull %7)
  br label %9

9:                                                ; preds = %8, %5
  %10 = getelementptr inbounds nuw i8, ptr %0, i64 16
  %11 = load ptr, ptr %10, align 8, !tbaa !231
  %.not11 = icmp eq ptr %11, null
  br i1 %.not11, label %14, label %12

12:                                               ; preds = %9
  %13 = tail call i32 @BIO_free(ptr noundef nonnull %11)
  br label %14

14:                                               ; preds = %12, %9
  tail call void @gpr_free(ptr noundef nonnull %0)
  ret void
}